; ModuleID = 'bench/lz4/original/threadpool.ll'
source_filename = "bench/lz4/original/threadpool.ll"
target datalayout = "e-m:e-p270:32:32-p271:32:32-p272:64:64-i64:64-i128:128-f80:128-n8:16:32:64-S128"
target triple = "x86_64-pc-linux-gnu"

%struct.TPool_s = type { i32 }

@g_poolCtx = internal global %struct.TPool_s zeroinitializer, align 4

; Function Attrs: mustprogress nofree norecurse nosync nounwind willreturn memory(none) uwtable
define dso_local noundef nonnull ptr @TPool_create(i32 noundef %0, i32 noundef %1) local_unnamed_addr #0 {
  ret ptr @g_poolCtx
}

; Function Attrs: mustprogress nofree norecurse nosync nounwind willreturn memory(none) uwtable
define dso_local void @TPool_free(ptr noundef readnone captures(none) %0) local_unnamed_addr #0 {
  ret void
}

; Function Attrs: nounwind uwtable
define dso_local void @TPool_submitJob(ptr noundef readnone captures(none) %0, ptr noundef readonly captures(none) %1, ptr noundef %2) local_unnamed_addr #1 {
  tail call void %1(ptr noundef %2) #2
  ret void
}

; Function Attrs: mustprogress nofree norecurse nosync nounwind willreturn memory(none) uwtable
define dso_local void @TPool_jobsCompleted(ptr noundef readnone captures(none) %0) local_unnamed_addr #0 {
  ret void
}


!llvm.module.flags = !{!0, !1, !2, !3}

!0 = !{i32 1, !"wchar_size", i32 4}
!1 = !{i32 8, !"PIC Level", i32 2}
!2 = !{i32 7, !"PIE Level", i32 2}
!3 = !{i32 7, !"uwtable", i32 2}
